; Function Attrs: mustprogress nofree norecurse nosync nounwind willreturn memory(write, argmem: readwrite, inaccessiblemem: none) uwtable
define void @Mtr_MakeFirstChild(ptr noundef %0, ptr noundef initializes((16, 24), (32, 48)) %1) local_unnamed_addr #6 {
  %3 = getelementptr inbounds nuw i8, ptr %1, i64 16
  store ptr %0, ptr %3, align 8, !tbaa !16
  %4 = getelementptr inbounds nuw i8, ptr %0, i64 24
  %5 = load ptr, ptr %4, align 8, !tbaa !10
  %6 = getelementptr inbounds nuw i8, ptr %1, i64 40
  store ptr %5, ptr %6, align 8, !tbaa !11
  %7 = getelementptr inbounds nuw i8, ptr %1, i64 32
  store ptr null, ptr %7, align 8, !tbaa !15
  %.not = icmp eq ptr %5, null
  br i1 %.not, label %10, label %8

8:                                                ; preds = %2
  %9 = getelementptr inbounds nuw i8, ptr %5, i64 32
  store ptr %1, ptr %9, align 8, !tbaa !15
  br label %10

10:                                               ; preds = %8, %2
  store ptr %1, ptr %4, align 8, !tbaa !10
  ret void
}